target datalayout = "e-m:e-p270:32:32-p271:32:32-p272:64:64-i64:64-i128:128-f80:128-n8:16:32:64-S128"
target triple = "x86_64-pc-linux-gnu"

%struct.Curl_multi = type { i32, i32, i32, %struct.Curl_llist, %struct.Curl_llist, %struct.Curl_llist, %struct.Curl_llist, i64, ptr, ptr, ptr, ptr, %struct.Curl_hash, ptr, %struct.PslCache, ptr, ptr, i64, ptr, i64, ptr, i64, %struct.Curl_hash, %struct.Curl_hash, %struct.cpool, i64, i64, ptr, ptr, i64, %struct.curltime, [2 x i32], i32, i32, i8, i8 }
%struct.Curl_llist = type { ptr, ptr, ptr, i64 }
%struct.PslCache = type { ptr, i64, i8 }
%struct.Curl_hash = type { ptr, ptr, ptr, ptr, i64, i64 }
%struct.cpool = type { %struct.Curl_hash, i64, i64, i64, %struct.curltime, %struct.Curl_llist, ptr, ptr, ptr, ptr, i8 }
%struct.curltime = type { i64, i32 }
%struct.Curl_llist_node = type { ptr, ptr, ptr, ptr }
%struct.Curl_easy = type { i32, i64, i64, ptr, %struct.Curl_llist_node, %struct.Curl_llist_node, i32, i32, %struct.Curl_message, %struct.easy_pollset, %struct.Names, ptr, ptr, ptr, ptr, %struct.SingleRequest, %struct.UserDefined, ptr, ptr, ptr, %struct.Progress, %struct.UrlState, ptr, %struct.PureInfo, %struct.curl_tlssessioninfo }
%struct.Curl_message = type { %struct.Curl_llist_node, %struct.CURLMsg }
%struct.CURLMsg = type { i32, ptr, %union.anon }
%union.anon = type { ptr }
%struct.easy_pollset = type { [5 x i32], i32, [5 x i8] }
%struct.Names = type { ptr, i32 }
%struct.SingleRequest = type <{ i64, i64, i64, i64, %struct.curltime, i32, i32, i32, i32, i64, i32, i32, i8, i8, [2 x i8], i32, ptr, ptr, %struct.bufq, i64, i64, ptr, ptr, %union.anon.0, ptr, i8, i32, [3 x i8] }>
%struct.bufq = type { ptr, ptr, ptr, ptr, i64, i64, i64, i32 }
%union.anon.0 = type { ptr }
%struct.UserDefined = type <{ ptr, ptr, ptr, ptr, ptr, ptr, i64, i64, i64, ptr, ptr, i64, ptr, ptr, ptr, ptr, ptr, ptr, ptr, ptr, ptr, ptr, ptr, ptr, ptr, ptr, ptr, ptr, ptr, ptr, ptr, ptr, ptr, ptr, ptr, i64, i64, i64, i64, i64, i64, i64, i64, i64, ptr, ptr, %struct.curl_mimepart, ptr, ptr, ptr, i64, %struct.ssl_config_data, %struct.ssl_config_data, ptr, i16, i8, i8, %struct.ssl_general_config, i32, i32, i32, [4 x i8], ptr, ptr, i64, i32, i8, i8, i8, i8, ptr, ptr, ptr, i32, [4 x i8], [74 x ptr], [8 x ptr], i32, i32, i32, [4 x i8], ptr, i32, [4 x i8], ptr, ptr, ptr, ptr, ptr, i32, i32, i32, i32, i32, i32, i32, i32, i64, ptr, ptr, i64, ptr, i64, ptr, ptr, ptr, ptr, i32, i16, i16, i16, i8, i8, i8, i8, i8, i8, i8, i8, i64, [6 x i8] }>
%struct.curl_mimepart = type { ptr, ptr, i32, i32, ptr, ptr, ptr, ptr, ptr, ptr, ptr, ptr, ptr, ptr, ptr, i64, %struct.mime_state, ptr, %struct.mime_encoder_state, i64 }
%struct.mime_state = type { i32, ptr, i64 }
%struct.mime_encoder_state = type { i64, i64, i64, [256 x i8] }
%struct.ssl_config_data = type { %struct.ssl_primary_config, i64, ptr, ptr, ptr, ptr, ptr, ptr, ptr, i16 }
%struct.ssl_primary_config = type { ptr, ptr, ptr, ptr, ptr, ptr, ptr, ptr, ptr, ptr, ptr, ptr, ptr, ptr, i8, i32, i8, i8 }
%struct.ssl_general_config = type { i32 }
%struct.Progress = type { i64, %struct.pgrs_dir, %struct.pgrs_dir, i64, i64, i32, i32, i64, i64, i64, i64, i64, i64, i64, i64, i64, %struct.curltime, %struct.curltime, %struct.curltime, %struct.curltime, %struct.curltime, [6 x i64], [6 x %struct.curltime], i32, i8 }
%struct.pgrs_dir = type { i64, i64, i64, %struct.pgrs_measure }
%struct.pgrs_measure = type { %struct.curltime, i64 }
%struct.UrlState = type { %struct.curltime, i64, i64, %struct.dynbuf, ptr, i64, ptr, i32, i32, i32, ptr, i32, i64, i32, ptr, %struct.digestdata, %struct.digestdata, %struct.auth, %struct.auth, %struct.Curl_async, ptr, i8, %struct.curltime, %struct.Curl_tree, %struct.Curl_llist, [15 x %struct.time_node], ptr, ptr, i64, i64, i64, i64, [32 x i8], i64, ptr, ptr, ptr, %struct.urlpieces, ptr, ptr, ptr, ptr, ptr, i64, %struct.dynbuf, %struct.Curl_llist, [2 x %struct.curl_header], ptr, i32, ptr, ptr, %struct.store_netrc, %struct.dynamically_allocated_data, i8, i8, i8, i8, i32 }
%struct.digestdata = type { ptr, ptr, ptr, ptr, ptr, ptr, i32, i8, i8 }
%struct.auth = type { i64, i64, i64, i8 }
%struct.Curl_async = type { ptr, ptr, ptr, ptr, i32, i32, i8 }
%struct.Curl_tree = type { ptr, ptr, ptr, ptr, %struct.curltime, ptr }
%struct.time_node = type { %struct.Curl_llist_node, %struct.curltime, i32 }
%struct.urlpieces = type { ptr, ptr, ptr, ptr, ptr, ptr, ptr, ptr }
%struct.dynbuf = type { ptr, i64, i64, i64 }
%struct.curl_header = type { ptr, ptr, i64, i64, i32, ptr }
%struct.store_netrc = type { %struct.dynbuf, ptr, i8 }
%struct.dynamically_allocated_data = type { ptr, ptr, ptr, ptr, ptr, ptr, ptr, ptr, ptr, ptr, ptr, ptr, ptr, ptr }
%struct.PureInfo = type { i32, i32, i32, i64, i64, i64, i64, i64, i64, i64, ptr, ptr, i64, i32, %struct.ip_quadruple, i32, ptr, i32, %struct.curl_certinfo, i32, i8 }
%struct.ip_quadruple = type { [46 x i8], [46 x i8], i32, i32 }
%struct.curl_certinfo = type { i32, ptr }
%struct.curl_tlssessioninfo = type { i32, ptr }

; Function Attrs: nounwind uwtable
define internal i32 @add_next_timeout(i64 %0, i32 %1, ptr noundef %2, ptr noundef %3) #0 {
  %5 = alloca %struct.curltime, align 8
  %6 = alloca ptr, align 8
  %7 = alloca ptr, align 8
  %8 = alloca ptr, align 8
  %9 = alloca ptr, align 8
  %10 = alloca ptr, align 8
  %11 = alloca ptr, align 8
  %12 = alloca ptr, align 8
  %13 = alloca i64, align 8
  %14 = alloca i32, align 4
  %15 = alloca ptr, align 8
  %16 = getelementptr inbounds nuw { i64, i32 }, ptr %5, i32 0, i32 0
  store i64 %0, ptr %16, align 8
  %17 = getelementptr inbounds nuw { i64, i32 }, ptr %5, i32 0, i32 1
  store i32 %1, ptr %17, align 8
  store ptr %2, ptr %6, align 8, !tbaa !9
  store ptr %3, ptr %7, align 8, !tbaa !43
  call void @llvm.lifetime.start.p0(i64 8, ptr %8) #9
  %18 = load ptr, ptr %7, align 8, !tbaa !43
  %19 = getelementptr inbounds nuw %struct.Curl_easy, ptr %18, i32 0, i32 21
  %20 = getelementptr inbounds nuw %struct.UrlState, ptr %19, i32 0, i32 22
  store ptr %20, ptr %8, align 8, !tbaa !145
  call void @llvm.lifetime.start.p0(i64 8, ptr %9) #9
  %21 = load ptr, ptr %7, align 8, !tbaa !43
  %22 = getelementptr inbounds nuw %struct.Curl_easy, ptr %21, i32 0, i32 21
  %23 = getelementptr inbounds nuw %struct.UrlState, ptr %22, i32 0, i32 24
  store ptr %23, ptr %9, align 8, !tbaa !149
  call void @llvm.lifetime.start.p0(i64 8, ptr %10) #9
  %24 = load ptr, ptr %9, align 8, !tbaa !149
  %25 = call ptr @Curl_llist_head(ptr noundef %24)
  store ptr %25, ptr %10, align 8, !tbaa !115
  br label %26

26:                                               ; preds = %54, %4
  %27 = load ptr, ptr %10, align 8, !tbaa !115
  %28 = icmp ne ptr %27, null
  br i1 %28, label %29, label %55

29:                                               ; preds = %26
  call void @llvm.lifetime.start.p0(i64 8, ptr %11) #9
  %30 = load ptr, ptr %10, align 8, !tbaa !115
  %31 = call ptr @Curl_node_next(ptr noundef %30)
  store ptr %31, ptr %11, align 8, !tbaa !115
  call void @llvm.lifetime.start.p0(i64 8, ptr %12) #9
  %32 = load ptr, ptr %10, align 8, !tbaa !115
  %33 = call ptr @Curl_node_elem(ptr noundef %32)
  store ptr %33, ptr %12, align 8, !tbaa !212
  call void @llvm.lifetime.start.p0(i64 8, ptr %13) #9
  %34 = load ptr, ptr %12, align 8, !tbaa !212
  %35 = getelementptr inbounds nuw %struct.time_node, ptr %34, i32 0, i32 1
  %36 = getelementptr inbounds nuw { i64, i32 }, ptr %35, i32 0, i32 0
  %37 = load i64, ptr %36, align 8
  %38 = getelementptr inbounds nuw { i64, i32 }, ptr %35, i32 0, i32 1
  %39 = load i32, ptr %38, align 8
  %40 = getelementptr inbounds nuw { i64, i32 }, ptr %5, i32 0, i32 0
  %41 = load i64, ptr %40, align 8
  %42 = getelementptr inbounds nuw { i64, i32 }, ptr %5, i32 0, i32 1
  %43 = load i32, ptr %42, align 8
  %44 = call i64 @Curl_timediff_us(i64 %37, i32 %39, i64 %41, i32 %43)
  store i64 %44, ptr %13, align 8, !tbaa !3
  %45 = load i64, ptr %13, align 8, !tbaa !3
  %46 = icmp sle i64 %45, 0
  br i1 %46, label %47, label %49

47:                                               ; preds = %29
  %48 = load ptr, ptr %10, align 8, !tbaa !115
  call void @Curl_node_remove(ptr noundef %48)
  br label %50

49:                                               ; preds = %29
  store i32 2, ptr %14, align 4
  br label %52

50:                                               ; preds = %47
  %51 = load ptr, ptr %11, align 8, !tbaa !115
  store ptr %51, ptr %10, align 8, !tbaa !115
  store i32 0, ptr %14, align 4
  br label %52

52:                                               ; preds = %50, %49
  call void @llvm.lifetime.end.p0(i64 8, ptr %13) #9
  call void @llvm.lifetime.end.p0(i64 8, ptr %12) #9
  call void @llvm.lifetime.end.p0(i64 8, ptr %11) #9
  %53 = load i32, ptr %14, align 4
  switch i32 %53, label %86 [
    i32 0, label %54
    i32 2, label %55
  ]

54:                                               ; preds = %52
  br label %26, !llvm.loop !214

55:                                               ; preds = %52, %26
  %56 = load ptr, ptr %9, align 8, !tbaa !149
  %57 = call ptr @Curl_llist_head(ptr noundef %56)
  store ptr %57, ptr %10, align 8, !tbaa !115
  %58 = load ptr, ptr %10, align 8, !tbaa !115
  %59 = icmp ne ptr %58, null
  br i1 %59, label %65, label %60

60:                                               ; preds = %55
  %61 = load ptr, ptr %8, align 8, !tbaa !145
  %62 = getelementptr inbounds nuw %struct.curltime, ptr %61, i32 0, i32 0
  store i64 0, ptr %62, align 8, !tbaa !147
  %63 = load ptr, ptr %8, align 8, !tbaa !145
  %64 = getelementptr inbounds nuw %struct.curltime, ptr %63, i32 0, i32 1
  store i32 0, ptr %64, align 8, !tbaa !148
  br label %85

65:                                               ; preds = %55
  call void @llvm.lifetime.start.p0(i64 8, ptr %15) #9
  %66 = load ptr, ptr %10, align 8, !tbaa !115
  %67 = call ptr @Curl_node_elem(ptr noundef %66)
  store ptr %67, ptr %15, align 8, !tbaa !212
  %68 = load ptr, ptr %8, align 8, !tbaa !145
  %69 = load ptr, ptr %15, align 8, !tbaa !212
  %70 = getelementptr inbounds nuw %struct.time_node, ptr %69, i32 0, i32 1
  call void @llvm.memcpy.p0.p0.i64(ptr align 8 %68, ptr align 8 %70, i64 16, i1 false)
  %71 = load ptr, ptr %8, align 8, !tbaa !145
  %72 = load ptr, ptr %6, align 8, !tbaa !9
  %73 = getelementptr inbounds nuw %struct.Curl_multi, ptr %72, i32 0, i32 15
  %74 = load ptr, ptr %73, align 8, !tbaa !150
  %75 = load ptr, ptr %7, align 8, !tbaa !43
  %76 = getelementptr inbounds nuw %struct.Curl_easy, ptr %75, i32 0, i32 21
  %77 = getelementptr inbounds nuw %struct.UrlState, ptr %76, i32 0, i32 23
  %78 = getelementptr inbounds nuw { i64, i32 }, ptr %71, i32 0, i32 0
  %79 = load i64, ptr %78, align 8
  %80 = getelementptr inbounds nuw { i64, i32 }, ptr %71, i32 0, i32 1
  %81 = load i32, ptr %80, align 8
  %82 = call ptr @Curl_splayinsert(i64 %79, i32 %81, ptr noundef %74, ptr noundef %77)
  %83 = load ptr, ptr %6, align 8, !tbaa !9
  %84 = getelementptr inbounds nuw %struct.Curl_multi, ptr %83, i32 0, i32 15
  store ptr %82, ptr %84, align 8, !tbaa !150
  call void @llvm.lifetime.end.p0(i64 8, ptr %15) #9
  br label %85

85:                                               ; preds = %65, %60
  store i32 1, ptr %14, align 4
  call void @llvm.lifetime.end.p0(i64 8, ptr %10) #9
  call void @llvm.lifetime.end.p0(i64 8, ptr %9) #9
  call void @llvm.lifetime.end.p0(i64 8, ptr %8) #9
  ret i32 0

86:                                               ; preds = %52
  unreachable
}