; Function Attrs: nounwind uwtable
define internal fastcc void @add_next_timeout(i64 %0, i32 %1, ptr noundef captures(none) %2, ptr noundef %3) unnamed_addr #0 {
  %5 = getelementptr inbounds nuw i8, ptr %3, i64 3512
  %6 = getelementptr inbounds nuw i8, ptr %3, i64 3584
  %7 = tail call ptr @Curl_llist_head(ptr noundef nonnull %6) #19
  %.not27 = icmp eq ptr %7, null
  br i1 %.not27, label %.thread, label %.lr.ph

.lr.ph:                                           ; preds = %4, %16
  %.028 = phi ptr [ %8, %16 ], [ %7, %4 ]
  %8 = tail call ptr @Curl_node_next(ptr noundef nonnull %.028) #19
  %9 = tail call ptr @Curl_node_elem(ptr noundef nonnull %.028) #19
  %10 = getelementptr inbounds nuw i8, ptr %9, i64 32
  %11 = load i64, ptr %10, align 8
  %12 = getelementptr inbounds nuw i8, ptr %9, i64 40
  %13 = load i32, ptr %12, align 8
  %14 = tail call i64 @Curl_timediff_us(i64 %11, i32 %13, i64 %0, i32 %1) #19
  %15 = icmp slt i64 %14, 1
  br i1 %15, label %16, label %.thread

16:                                               ; preds = %.lr.ph
  tail call void @Curl_node_remove(ptr noundef nonnull %.028) #19
  %.not = icmp eq ptr %8, null
  br i1 %.not, label %.thread, label %.lr.ph

.thread:                                          ; preds = %16, %.lr.ph, %4
  %17 = tail call ptr @Curl_llist_head(ptr noundef nonnull %6) #19
  %.not23 = icmp eq ptr %17, null
  br i1 %.not23, label %18, label %20

18:                                               ; preds = %.thread
  store i64 0, ptr %5, align 8, !tbaa !135
  %19 = getelementptr inbounds nuw i8, ptr %3, i64 3520
  store i32 0, ptr %19, align 8, !tbaa !136
  br label %30

20:                                               ; preds = %.thread
  %21 = tail call ptr @Curl_node_elem(ptr noundef nonnull %17) #19
  %22 = getelementptr inbounds nuw i8, ptr %21, i64 32
  tail call void @llvm.memcpy.p0.p0.i64(ptr noundef nonnull align 8 dereferenceable(16) %5, ptr noundef nonnull align 8 dereferenceable(16) %22, i64 16, i1 false)
  %23 = getelementptr inbounds nuw i8, ptr %2, i64 264
  %24 = load ptr, ptr %23, align 8, !tbaa !137
  %25 = getelementptr inbounds nuw i8, ptr %3, i64 3528
  %26 = load i64, ptr %5, align 8
  %27 = getelementptr inbounds nuw i8, ptr %3, i64 3520
  %28 = load i32, ptr %27, align 8
  %29 = tail call ptr @Curl_splayinsert(i64 %26, i32 %28, ptr noundef %24, ptr noundef nonnull %25) #19
  store ptr %29, ptr %23, align 8, !tbaa !137
  br label %30

30:                                               ; preds = %20, %18
  ret void
}